target datalayout = "e-m:e-p270:32:32-p271:32:32-p272:64:64-i64:64-i128:128-f80:128-n8:16:32:64-S128"
target triple = "x86_64-unknown-linux-gnu"

%"struct.std::once_flag" = type { i32 }
%"class.std::shared_ptr" = type { %"class.std::__shared_ptr" }
%"class.std::__shared_ptr" = type { ptr, %"class.std::__shared_count" }
%"class.std::__shared_count" = type { ptr }
%"class.rocksdb::Status" = type { i8, i8, i8, i8, i8, i8, %"class.std::unique_ptr" }
%"class.std::unique_ptr" = type { %"struct.std::__uniq_ptr_data" }
%"struct.std::__uniq_ptr_data" = type { %"class.std::__uniq_ptr_impl" }
%"class.std::__uniq_ptr_impl" = type { %"class.std::tuple" }
%"class.std::tuple" = type { %"struct.std::_Tuple_impl" }
%"struct.std::_Tuple_impl" = type { %"struct.std::_Head_base.25" }
%"struct.std::_Head_base.25" = type { ptr }
%"class.std::__shared_ptr.31" = type { ptr, %"class.std::__shared_count" }
%"class.std::shared_ptr.96" = type { %"class.std::__shared_ptr.97" }
%"class.std::__shared_ptr.97" = type { ptr, %"class.std::__shared_count" }
%"struct.rocksdb::ColumnFamilyOptions" = type <{ %"struct.rocksdb::AdvancedColumnFamilyOptions", ptr, %"class.std::shared_ptr", ptr, %"class.std::shared_ptr.96", i64, i8, i8, [6 x i8], %"struct.rocksdb::CompressionOptions", %"struct.rocksdb::CompressionOptions", i32, [4 x i8], %"class.std::shared_ptr.70", i64, i64, i8, [7 x i8], %"class.std::shared_ptr.99", %"class.std::vector.48", %"class.std::shared_ptr.102", %"class.std::shared_ptr.105", i32, [4 x i8] }>
%"struct.rocksdb::AdvancedColumnFamilyOptions" = type { i32, i32, i32, i64, i8, i64, double, ptr, double, i8, i64, %"class.std::shared_ptr.70", i32, i64, %"class.std::vector.73", i32, i32, i32, i64, i32, i8, i8, double, %"class.std::vector.78", i64, i8, i64, i64, i8, i8, [2 x i8], %"class.rocksdb::CompactionOptionsUniversal", %"struct.rocksdb::CompactionOptionsFIFO", i64, %"class.std::shared_ptr.88", %"class.std::vector.91", i64, i8, i8, i8, i8, i8, i64, i64, i64, i8, i8, i8, i64, i64, i8, i64, i64, i8, i8, double, double, i64, i32, %"class.std::shared_ptr.61", i8, i32, i8, i8, i32 }
%"class.std::vector.73" = type { %"struct.std::_Vector_base.74" }
%"struct.std::_Vector_base.74" = type { %"struct.std::_Vector_base<rocksdb::CompressionType, std::allocator<rocksdb::CompressionType>>::_Vector_impl" }
%"struct.std::_Vector_base<rocksdb::CompressionType, std::allocator<rocksdb::CompressionType>>::_Vector_impl" = type { %"struct.std::_Vector_base<rocksdb::CompressionType, std::allocator<rocksdb::CompressionType>>::_Vector_impl_data" }
%"struct.std::_Vector_base<rocksdb::CompressionType, std::allocator<rocksdb::CompressionType>>::_Vector_impl_data" = type { ptr, ptr, ptr }
%"class.std::vector.78" = type { %"struct.std::_Vector_base.79" }
%"struct.std::_Vector_base.79" = type { %"struct.std::_Vector_base<int, std::allocator<int>>::_Vector_impl" }
%"struct.std::_Vector_base<int, std::allocator<int>>::_Vector_impl" = type { %"struct.std::_Vector_base<int, std::allocator<int>>::_Vector_impl_data" }
%"struct.std::_Vector_base<int, std::allocator<int>>::_Vector_impl_data" = type { ptr, ptr, ptr }
%"class.rocksdb::CompactionOptionsUniversal" = type <{ i32, i32, i32, i32, i32, i32, i8, i8, [2 x i8] }>
%"struct.rocksdb::CompactionOptionsFIFO" = type { i64, i8, i64, %"class.std::vector.83" }
%"class.std::vector.83" = type { %"struct.std::_Vector_base.84" }
%"struct.std::_Vector_base.84" = type { %"struct.std::_Vector_base<rocksdb::FileTemperatureAge, std::allocator<rocksdb::FileTemperatureAge>>::_Vector_impl" }
%"struct.std::_Vector_base<rocksdb::FileTemperatureAge, std::allocator<rocksdb::FileTemperatureAge>>::_Vector_impl" = type { %"struct.std::_Vector_base<rocksdb::FileTemperatureAge, std::allocator<rocksdb::FileTemperatureAge>>::_Vector_impl_data" }
%"struct.std::_Vector_base<rocksdb::FileTemperatureAge, std::allocator<rocksdb::FileTemperatureAge>>::_Vector_impl_data" = type { ptr, ptr, ptr }
%"class.std::shared_ptr.88" = type { %"class.std::__shared_ptr.89" }
%"class.std::__shared_ptr.89" = type { ptr, %"class.std::__shared_count" }
%"class.std::vector.91" = type { %"struct.std::_Vector_base.92" }
%"struct.std::_Vector_base.92" = type { %"struct.std::_Vector_base<std::shared_ptr<rocksdb::TablePropertiesCollectorFactory>, std::allocator<std::shared_ptr<rocksdb::TablePropertiesCollectorFactory>>>::_Vector_impl" }
%"struct.std::_Vector_base<std::shared_ptr<rocksdb::TablePropertiesCollectorFactory>, std::allocator<std::shared_ptr<rocksdb::TablePropertiesCollectorFactory>>>::_Vector_impl" = type { %"struct.std::_Vector_base<std::shared_ptr<rocksdb::TablePropertiesCollectorFactory>, std::allocator<std::shared_ptr<rocksdb::TablePropertiesCollectorFactory>>>::_Vector_impl_data" }
%"struct.std::_Vector_base<std::shared_ptr<rocksdb::TablePropertiesCollectorFactory>, std::allocator<std::shared_ptr<rocksdb::TablePropertiesCollectorFactory>>>::_Vector_impl_data" = type { ptr, ptr, ptr }
%"class.std::shared_ptr.61" = type { %"class.std::__shared_ptr.62" }
%"class.std::__shared_ptr.62" = type { ptr, %"class.std::__shared_count" }
%"struct.rocksdb::CompressionOptions" = type <{ i32, i32, i32, i32, i32, i32, i8, [7 x i8], i64, i8, [3 x i8], i32, i8, [7 x i8] }>
%"class.std::shared_ptr.70" = type { %"class.std::__shared_ptr.71" }
%"class.std::__shared_ptr.71" = type { ptr, %"class.std::__shared_count" }
%"class.std::shared_ptr.99" = type { %"class.std::__shared_ptr.100" }
%"class.std::__shared_ptr.100" = type { ptr, %"class.std::__shared_count" }
%"class.std::vector.48" = type { %"struct.std::_Vector_base.49" }
%"struct.std::_Vector_base.49" = type { %"struct.std::_Vector_base<rocksdb::DbPath, std::allocator<rocksdb::DbPath>>::_Vector_impl" }
%"struct.std::_Vector_base<rocksdb::DbPath, std::allocator<rocksdb::DbPath>>::_Vector_impl" = type { %"struct.std::_Vector_base<rocksdb::DbPath, std::allocator<rocksdb::DbPath>>::_Vector_impl_data" }
%"struct.std::_Vector_base<rocksdb::DbPath, std::allocator<rocksdb::DbPath>>::_Vector_impl_data" = type { ptr, ptr, ptr }
%"class.std::shared_ptr.102" = type { %"class.std::__shared_ptr.103" }
%"class.std::__shared_ptr.103" = type { ptr, %"class.std::__shared_count" }
%"class.std::shared_ptr.105" = type { %"class.std::__shared_ptr.106" }
%"class.std::__shared_ptr.106" = type { ptr, %"class.std::__shared_count" }
%"class.rocksdb::StackableDB" = type { %"class.rocksdb::DB", ptr, %"class.std::shared_ptr.170" }
%"class.rocksdb::DB" = type { ptr }
%"class.std::shared_ptr.170" = type { %"class.std::__shared_ptr.171" }
%"class.std::__shared_ptr.171" = type { ptr, %"class.std::__shared_count" }
%class.anon.173 = type { i8 }
%class.anon.368 = type { ptr }
%"struct.std::once_flag::_Prepare_execution" = type { i8 }
%class.anon.369 = type { i8 }

@_ZZN7rocksdb13DBWithTTLImpl18RegisterTtlClassesEvE4once = internal global %"struct.std::once_flag" zeroinitializer, align 4
@_ZSt15__once_callable = external thread_local global ptr, align 8
@_ZSt11__once_call = external thread_local global ptr, align 8

; Function Attrs: mustprogress nounwind uwtable
define internal noundef i32 @_ZL18__gthread_active_pv() #1 {
entry:
  ret i32 1
}

; Function Attrs: mustprogress nounwind uwtable
define internal noundef ptr @"_ZZNSt9once_flag18_Prepare_executionC1IZSt9call_onceIZN7rocksdb13DBWithTTLImpl18RegisterTtlClassesEvE3$_0JEEvRS_OT_DpOT0_EUlvE_EERS7_ENKUlvE_cvPFvvEEv"(ptr noundef nonnull align 1 dereferenceable(1) %this) #1 align 2 {
entry:
  %this.addr = alloca ptr, align 8
  store ptr %this, ptr %this.addr, align 8
  ret ptr @"_ZZNSt9once_flag18_Prepare_executionC1IZSt9call_onceIZN7rocksdb13DBWithTTLImpl18RegisterTtlClassesEvE3$_0JEEvRS_OT_DpOT0_EUlvE_EERS7_ENUlvE_8__invokeEv"
}

; Function Attrs: mustprogress nounwind uwtable
define linkonce_odr void @_ZNSt9once_flag18_Prepare_executionD2Ev(ptr noundef nonnull align 1 dereferenceable(1) %this) unnamed_addr #1 comdat align 2 {
entry:
  %this.addr = alloca ptr, align 8
  store ptr %this, ptr %this.addr, align 8
  %0 = call align 8 ptr @llvm.threadlocal.address.p0(ptr align 8 @_ZSt15__once_callable)
  store ptr null, ptr %0, align 8
  %1 = call align 8 ptr @llvm.threadlocal.address.p0(ptr align 8 @_ZSt11__once_call)
  store ptr null, ptr %1, align 8
  ret void
}

; Function Attrs: mustprogress uwtable
define internal noundef i32 @_ZL14__gthread_oncePiPFvvE(ptr noundef %__once, ptr noundef %__func) #0 {
entry:
  %retval = alloca i32, align 4
  %__once.addr = alloca ptr, align 8
  %__func.addr = alloca ptr, align 8
  store ptr %__once, ptr %__once.addr, align 8
  store ptr %__func, ptr %__func.addr, align 8
  %call = call noundef i32 @_ZL18__gthread_active_pv()
  %tobool = icmp ne i32 %call, 0
  br i1 %tobool, label %if.then, label %if.else

if.then:                                          ; preds = %entry
  %0 = load ptr, ptr %__once.addr, align 8
  %1 = load ptr, ptr %__func.addr, align 8
  %call1 = call i32 @pthread_once(ptr noundef %0, ptr noundef %1)
  store i32 %call1, ptr %retval, align 4
  br label %return

if.else:                                          ; preds = %entry
  store i32 -1, ptr %retval, align 4
  br label %return

return:                                           ; preds = %if.else, %if.then
  %2 = load i32, ptr %retval, align 4
  ret i32 %2
}

; Function Attrs: mustprogress nounwind uwtable
define internal void @"_ZNSt9once_flag18_Prepare_executionC2IZSt9call_onceIZN7rocksdb13DBWithTTLImpl18RegisterTtlClassesEvE3$_0JEEvRS_OT_DpOT0_EUlvE_EERS7_"(ptr noundef nonnull align 1 dereferenceable(1) %this, ptr noundef nonnull align 8 dereferenceable(8) %__c) unnamed_addr #1 align 2 {
entry:
  %this.addr = alloca ptr, align 8
  %__c.addr = alloca ptr, align 8
  %ref.tmp = alloca %class.anon.369, align 1
  store ptr %this, ptr %this.addr, align 8
  store ptr %__c, ptr %__c.addr, align 8
  %0 = load ptr, ptr %__c.addr, align 8
  %1 = call align 8 ptr @llvm.threadlocal.address.p0(ptr align 8 @_ZSt15__once_callable)
  store ptr %0, ptr %1, align 8
  %call = call noundef ptr @"_ZZNSt9once_flag18_Prepare_executionC1IZSt9call_onceIZN7rocksdb13DBWithTTLImpl18RegisterTtlClassesEvE3$_0JEEvRS_OT_DpOT0_EUlvE_EERS7_ENKUlvE_cvPFvvEEv"(ptr noundef nonnull align 1 dereferenceable(1) %ref.tmp) #3
  %2 = call align 8 ptr @llvm.threadlocal.address.p0(ptr align 8 @_ZSt11__once_call)
  store ptr %call, ptr %2, align 8
  ret void
}

; Function Attrs: mustprogress uwtable
define internal void @"_ZSt9call_onceIZN7rocksdb13DBWithTTLImpl18RegisterTtlClassesEvE3$_0JEEvRSt9once_flagOT_DpOT0_"(ptr noundef nonnull align 4 dereferenceable(4) %__once, ptr noundef nonnull align 1 dereferenceable(1) %__f) #0 personality ptr @__gxx_personality_v0 {
entry:
  %__once.addr = alloca ptr, align 8
  %__f.addr = alloca ptr, align 8
  %__callable = alloca %class.anon.368, align 8
  %__exec = alloca %"struct.std::once_flag::_Prepare_execution", align 1
  %__e = alloca i32, align 4
  %exn.slot = alloca ptr, align 8
  %ehselector.slot = alloca i32, align 4
  store ptr %__once, ptr %__once.addr, align 8
  store ptr %__f, ptr %__f.addr, align 8
  %0 = getelementptr inbounds %class.anon.368, ptr %__callable, i32 0, i32 0
  %1 = load ptr, ptr %__f.addr, align 8
  store ptr %1, ptr %0, align 8
  call void @"_ZNSt9once_flag18_Prepare_executionC2IZSt9call_onceIZN7rocksdb13DBWithTTLImpl18RegisterTtlClassesEvE3$_0JEEvRS_OT_DpOT0_EUlvE_EERS7_"(ptr noundef nonnull align 1 dereferenceable(1) %__exec, ptr noundef nonnull align 8 dereferenceable(8) %__callable)
  %2 = load ptr, ptr %__once.addr, align 8
  %_M_once = getelementptr inbounds %"struct.std::once_flag", ptr %2, i32 0, i32 0
  %call = invoke noundef i32 @_ZL14__gthread_oncePiPFvvE(ptr noundef %_M_once, ptr noundef @__once_proxy)
          to label %invoke.cont unwind label %lpad

invoke.cont:                                      ; preds = %entry
  store i32 %call, ptr %__e, align 4
  %3 = load i32, ptr %__e, align 4
  %tobool = icmp ne i32 %3, 0
  br i1 %tobool, label %if.then, label %if.end

if.then:                                          ; preds = %invoke.cont
  %4 = load i32, ptr %__e, align 4
  invoke void @_ZSt20__throw_system_errori(i32 noundef %4) #17
          to label %invoke.cont1 unwind label %lpad

invoke.cont1:                                     ; preds = %if.then
  unreachable

lpad:                                             ; preds = %if.then, %entry
  %5 = landingpad { ptr, i32 }
          cleanup
  %6 = extractvalue { ptr, i32 } %5, 0
  store ptr %6, ptr %exn.slot, align 8
  %7 = extractvalue { ptr, i32 } %5, 1
  store i32 %7, ptr %ehselector.slot, align 4
  call void @_ZNSt9once_flag18_Prepare_executionD2Ev(ptr noundef nonnull align 1 dereferenceable(1) %__exec) #3
  br label %eh.resume

if.end:                                           ; preds = %invoke.cont
  call void @_ZNSt9once_flag18_Prepare_executionD2Ev(ptr noundef nonnull align 1 dereferenceable(1) %__exec) #3
  ret void

eh.resume:                                        ; preds = %lpad
  %exn = load ptr, ptr %exn.slot, align 8
  %sel = load i32, ptr %ehselector.slot, align 4
  %lpad.val = insertvalue { ptr, i32 } poison, ptr %exn, 0
  %lpad.val2 = insertvalue { ptr, i32 } %lpad.val, i32 %sel, 1
  resume { ptr, i32 } %lpad.val2
}

; Function Attrs: mustprogress uwtable
define linkonce_odr void @_ZN7rocksdb11StackableDB18CreateColumnFamilyERKNS_19ColumnFamilyOptionsERKNSt7__cxx1112basic_stringIcSt11char_traitsIcESaIcEEEPPNS_18ColumnFamilyHandleE(ptr noalias sret(%"class.rocksdb::Status") align 8 %agg.result, ptr noundef nonnull align 8 dereferenceable(32) %this, ptr noundef nonnull align 8 dereferenceable(820) %options, ptr noundef nonnull align 8 dereferenceable(32) %column_family_name, ptr noundef %handle) unnamed_addr #0 comdat align 2 {
entry:
  %result.ptr = alloca ptr, align 8
  %this.addr = alloca ptr, align 8
  %options.addr = alloca ptr, align 8
  %column_family_name.addr = alloca ptr, align 8
  %handle.addr = alloca ptr, align 8
  store ptr %agg.result, ptr %result.ptr, align 8
  store ptr %this, ptr %this.addr, align 8
  store ptr %options, ptr %options.addr, align 8
  store ptr %column_family_name, ptr %column_family_name.addr, align 8
  store ptr %handle, ptr %handle.addr, align 8
  %this1 = load ptr, ptr %this.addr, align 8
  %db_ = getelementptr inbounds %"class.rocksdb::StackableDB", ptr %this1, i32 0, i32 1
  %0 = load ptr, ptr %db_, align 8
  %1 = load ptr, ptr %options.addr, align 8
  %2 = load ptr, ptr %column_family_name.addr, align 8
  %3 = load ptr, ptr %handle.addr, align 8
  %vtable = load ptr, ptr %0, align 8
  %vfn = getelementptr inbounds ptr, ptr %vtable, i64 4
  %4 = load ptr, ptr %vfn, align 8
  call void %4(ptr sret(%"class.rocksdb::Status") align 8 %agg.result, ptr noundef nonnull align 8 dereferenceable(8) %0, ptr noundef nonnull align 8 dereferenceable(820) %1, ptr noundef nonnull align 8 dereferenceable(32) %2, ptr noundef %3)
  ret void
}

; Function Attrs: mustprogress nounwind uwtable
define linkonce_odr noundef ptr @_ZNKSt12__shared_ptrIN7rocksdb11SystemClockELN9__gnu_cxx12_Lock_policyE2EE3getEv(ptr noundef nonnull align 8 dereferenceable(16) %this) #1 comdat align 2 {
entry:
  %this.addr = alloca ptr, align 8
  store ptr %this, ptr %this.addr, align 8
  %this1 = load ptr, ptr %this.addr, align 8
  %_M_ptr = getelementptr inbounds %"class.std::__shared_ptr.31", ptr %this1, i32 0, i32 0
  %0 = load ptr, ptr %_M_ptr, align 8
  ret ptr %0
}

; Function Attrs: mustprogress uwtable
define void @_ZN7rocksdb13DBWithTTLImpl18RegisterTtlClassesEv() #0 align 2 {
entry:
  %ref.tmp = alloca %class.anon.173, align 1
  call void @"_ZSt9call_onceIZN7rocksdb13DBWithTTLImpl18RegisterTtlClassesEvE3$_0JEEvRSt9once_flagOT_DpOT0_"(ptr noundef nonnull align 4 dereferenceable(4) @_ZZN7rocksdb13DBWithTTLImpl18RegisterTtlClassesEvE4once, ptr noundef nonnull align 1 dereferenceable(1) %ref.tmp)
  ret void
}

; Function Attrs: mustprogress uwtable
define void @_ZN7rocksdb13DBWithTTLImpl25CreateColumnFamilyWithTtlERKNS_19ColumnFamilyOptionsERKNSt7__cxx1112basic_stringIcSt11char_traitsIcESaIcEEEPPNS_18ColumnFamilyHandleEi(ptr noalias sret(%"class.rocksdb::Status") align 8 %agg.result, ptr noundef nonnull align 8 dereferenceable(33) %this, ptr noundef nonnull align 8 dereferenceable(820) %options, ptr noundef nonnull align 8 dereferenceable(32) %column_family_name, ptr noundef %handle, i32 noundef %ttl) unnamed_addr #0 align 2 personality ptr @__gxx_personality_v0 {
entry:
  %result.ptr = alloca ptr, align 8
  %this.addr = alloca ptr, align 8
  %options.addr = alloca ptr, align 8
  %column_family_name.addr = alloca ptr, align 8
  %handle.addr = alloca ptr, align 8
  %ttl.addr = alloca i32, align 4
  %sanitized_options = alloca %"struct.rocksdb::ColumnFamilyOptions", align 8
  %exn.slot = alloca ptr, align 8
  %ehselector.slot = alloca i32, align 4
  store ptr %agg.result, ptr %result.ptr, align 8
  store ptr %this, ptr %this.addr, align 8
  store ptr %options, ptr %options.addr, align 8
  store ptr %column_family_name, ptr %column_family_name.addr, align 8
  store ptr %handle, ptr %handle.addr, align 8
  store i32 %ttl, ptr %ttl.addr, align 4
  %this1 = load ptr, ptr %this.addr, align 8
  call void @_ZN7rocksdb13DBWithTTLImpl18RegisterTtlClassesEv()
  %0 = load ptr, ptr %options.addr, align 8
  call void @_ZN7rocksdb19ColumnFamilyOptionsC2ERKS0_(ptr noundef nonnull align 8 dereferenceable(820) %sanitized_options, ptr noundef nonnull align 8 dereferenceable(820) %0)
  %1 = load i32, ptr %ttl.addr, align 4
  %vtable = load ptr, ptr %this1, align 8
  %vfn = getelementptr inbounds ptr, ptr %vtable, i64 94
  %2 = load ptr, ptr %vfn, align 8
  %call = invoke noundef ptr %2(ptr noundef nonnull align 8 dereferenceable(32) %this1)
          to label %invoke.cont unwind label %lpad

invoke.cont:                                      ; preds = %entry
  %call3 = invoke noundef nonnull align 8 dereferenceable(16) ptr @_ZNK7rocksdb3Env14GetSystemClockEv(ptr noundef nonnull align 8 dereferenceable(72) %call)
          to label %invoke.cont2 unwind label %lpad

invoke.cont2:                                     ; preds = %invoke.cont
  %call4 = call noundef ptr @_ZNKSt12__shared_ptrIN7rocksdb11SystemClockELN9__gnu_cxx12_Lock_policyE2EE3getEv(ptr noundef nonnull align 8 dereferenceable(16) %call3) #3
  invoke void @_ZN7rocksdb13DBWithTTLImpl15SanitizeOptionsEiPNS_19ColumnFamilyOptionsEPNS_11SystemClockE(i32 noundef %1, ptr noundef %sanitized_options, ptr noundef %call4)
          to label %invoke.cont5 unwind label %lpad

invoke.cont5:                                     ; preds = %invoke.cont2
  %3 = load ptr, ptr %column_family_name.addr, align 8
  %4 = load ptr, ptr %handle.addr, align 8
  invoke void @_ZN7rocksdb11StackableDB18CreateColumnFamilyERKNS_19ColumnFamilyOptionsERKNSt7__cxx1112basic_stringIcSt11char_traitsIcESaIcEEEPPNS_18ColumnFamilyHandleE(ptr sret(%"class.rocksdb::Status") align 8 %agg.result, ptr noundef nonnull align 8 dereferenceable(32) %this1, ptr noundef nonnull align 8 dereferenceable(820) %sanitized_options, ptr noundef nonnull align 8 dereferenceable(32) %3, ptr noundef %4)
          to label %invoke.cont6 unwind label %lpad

invoke.cont6:                                     ; preds = %invoke.cont5
  call void @_ZN7rocksdb19ColumnFamilyOptionsD2Ev(ptr noundef nonnull align 8 dereferenceable(820) %sanitized_options) #3
  ret void

lpad:                                             ; preds = %invoke.cont5, %invoke.cont2, %invoke.cont, %entry
  %5 = landingpad { ptr, i32 }
          cleanup
  %6 = extractvalue { ptr, i32 } %5, 0
  store ptr %6, ptr %exn.slot, align 8
  %7 = extractvalue { ptr, i32 } %5, 1
  store i32 %7, ptr %ehselector.slot, align 4
  call void @_ZN7rocksdb19ColumnFamilyOptionsD2Ev(ptr noundef nonnull align 8 dereferenceable(820) %sanitized_options) #3
  br label %eh.resume

eh.resume:                                        ; preds = %lpad
  %exn = load ptr, ptr %exn.slot, align 8
  %sel = load i32, ptr %ehselector.slot, align 4
  %lpad.val = insertvalue { ptr, i32 } poison, ptr %exn, 0
  %lpad.val7 = insertvalue { ptr, i32 } %lpad.val, i32 %sel, 1
  resume { ptr, i32 } %lpad.val7
}