; Function Attrs: mustprogress uwtable
define void @_ZN7rocksdb13DBWithTTLImpl25CreateColumnFamilyWithTtlERKNS_19ColumnFamilyOptionsERKNSt7__cxx1112basic_stringIcSt11char_traitsIcESaIcEEEPPNS_18ColumnFamilyHandleEi(ptr noalias sret(%"class.rocksdb::Status") align 8 %agg.result, ptr noundef nonnull align 8 dereferenceable(33) %this, ptr noundef nonnull align 8 dereferenceable(820) %options, ptr noundef nonnull align 8 dereferenceable(32) %column_family_name, ptr noundef %handle, i32 noundef %ttl) unnamed_addr #2 align 2 personality ptr @__gxx_personality_v0 {
entry:
  %__callable.i.i = alloca %class.anon.368, align 8
  %ref.tmp.i = alloca %class.anon.173, align 1
  %sanitized_options = alloca %"struct.rocksdb::ColumnFamilyOptions", align 8
  call void @llvm.lifetime.start.p0(i64 1, ptr nonnull %ref.tmp.i)
  call void @llvm.lifetime.start.p0(i64 8, ptr nonnull %__callable.i.i)
  store ptr %ref.tmp.i, ptr %__callable.i.i, align 8
  %0 = call align 8 ptr @llvm.threadlocal.address.p0(ptr align 8 @_ZSt15__once_callable)
  store ptr %__callable.i.i, ptr %0, align 8
  %1 = call align 8 ptr @llvm.threadlocal.address.p0(ptr align 8 @_ZSt11__once_call)
  store ptr @"_ZZNSt9once_flag18_Prepare_executionC1IZSt9call_onceIZN7rocksdb13DBWithTTLImpl18RegisterTtlClassesEvE3$_0JEEvRS_OT_DpOT0_EUlvE_EERS7_ENUlvE_8__invokeEv", ptr %1, align 8
  %call1.i2.i.i = invoke noundef i32 @pthread_once(ptr noundef nonnull @_ZZN7rocksdb13DBWithTTLImpl18RegisterTtlClassesEvE4once, ptr noundef nonnull @__once_proxy)
          to label %invoke.cont.i.i unwind label %lpad.i.i

invoke.cont.i.i:                                  ; preds = %entry
  %tobool.not.i.i = icmp eq i32 %call1.i2.i.i, 0
  br i1 %tobool.not.i.i, label %_ZN7rocksdb13DBWithTTLImpl18RegisterTtlClassesEv.exit, label %if.then.i.i

if.then.i.i:                                      ; preds = %invoke.cont.i.i
  invoke void @_ZSt20__throw_system_errori(i32 noundef %call1.i2.i.i) #23
          to label %invoke.cont1.i.i unwind label %lpad.i.i

invoke.cont1.i.i:                                 ; preds = %if.then.i.i
  unreachable

common.resume:                                    ; preds = %lpad, %lpad.i.i
  %common.resume.op = phi { ptr, i32 } [ %2, %lpad.i.i ], [ %7, %lpad ]
  resume { ptr, i32 } %common.resume.op

lpad.i.i:                                         ; preds = %if.then.i.i, %entry
  %2 = landingpad { ptr, i32 }
          cleanup
  store ptr null, ptr %0, align 8
  store ptr null, ptr %1, align 8
  br label %common.resume

_ZN7rocksdb13DBWithTTLImpl18RegisterTtlClassesEv.exit: ; preds = %invoke.cont.i.i
  store ptr null, ptr %0, align 8
  store ptr null, ptr %1, align 8
  call void @llvm.lifetime.end.p0(i64 8, ptr nonnull %__callable.i.i)
  call void @llvm.lifetime.end.p0(i64 1, ptr nonnull %ref.tmp.i)
  call void @_ZN7rocksdb19ColumnFamilyOptionsC2ERKS0_(ptr noundef nonnull align 8 dereferenceable(820) %sanitized_options, ptr noundef nonnull align 8 dereferenceable(820) %options)
  %vtable = load ptr, ptr %this, align 8
  %vfn = getelementptr inbounds i8, ptr %vtable, i64 752
  %3 = load ptr, ptr %vfn, align 8
  %call = invoke noundef ptr %3(ptr noundef nonnull align 8 dereferenceable(32) %this)
          to label %invoke.cont unwind label %lpad

invoke.cont:                                      ; preds = %_ZN7rocksdb13DBWithTTLImpl18RegisterTtlClassesEv.exit
  %call3 = invoke noundef nonnull align 8 dereferenceable(16) ptr @_ZNK7rocksdb3Env14GetSystemClockEv(ptr noundef nonnull align 8 dereferenceable(72) %call)
          to label %invoke.cont2 unwind label %lpad

invoke.cont2:                                     ; preds = %invoke.cont
  %4 = load ptr, ptr %call3, align 8
  invoke void @_ZN7rocksdb13DBWithTTLImpl15SanitizeOptionsEiPNS_19ColumnFamilyOptionsEPNS_11SystemClockE(i32 noundef %ttl, ptr noundef nonnull %sanitized_options, ptr noundef %4)
          to label %invoke.cont5 unwind label %lpad

invoke.cont5:                                     ; preds = %invoke.cont2
  %db_.i = getelementptr inbounds i8, ptr %this, i64 8
  %5 = load ptr, ptr %db_.i, align 8, !noalias !26
  %vtable.i = load ptr, ptr %5, align 8, !noalias !26
  %vfn.i = getelementptr inbounds i8, ptr %vtable.i, i64 32
  %6 = load ptr, ptr %vfn.i, align 8, !noalias !26
  invoke void %6(ptr sret(%"class.rocksdb::Status") align 8 %agg.result, ptr noundef nonnull align 8 dereferenceable(8) %5, ptr noundef nonnull align 8 dereferenceable(820) %sanitized_options, ptr noundef nonnull align 8 dereferenceable(32) %column_family_name, ptr noundef %handle)
          to label %invoke.cont6 unwind label %lpad

invoke.cont6:                                     ; preds = %invoke.cont5
  call void @_ZN7rocksdb19ColumnFamilyOptionsD2Ev(ptr noundef nonnull align 8 dereferenceable(820) %sanitized_options) #21
  ret void

lpad:                                             ; preds = %invoke.cont5, %invoke.cont2, %invoke.cont, %_ZN7rocksdb13DBWithTTLImpl18RegisterTtlClassesEv.exit
  %7 = landingpad { ptr, i32 }
          cleanup
  call void @_ZN7rocksdb19ColumnFamilyOptionsD2Ev(ptr noundef nonnull align 8 dereferenceable(820) %sanitized_options) #21
  br label %common.resume
}